; Function Attrs: mustprogress nounwind uwtable
define internal fastcc void @_ZN3gmx15analysismodules12_GLOBAL__N_112HbondStorageD2Ev(ptr nocapture noundef nonnull readonly align 8 dereferenceable(24) %0) unnamed_addr #6 align 2 personality ptr @__gxx_personality_v0 {
  %2 = load ptr, ptr %0, align 8
  %3 = getelementptr inbounds i8, ptr %0, i64 8
  %4 = load ptr, ptr %3, align 8
  %.not4.i.i.i.i = icmp eq ptr %2, %4
  br i1 %.not4.i.i.i.i, label %_ZSt8_DestroyIPN3gmx15analysismodules12_GLOBAL__N_117HbondStorageFrameES3_EvT_S5_RSaIT0_E.exit.i, label %.lr.ph.i.i.i.i

.lr.ph.i.i.i.i:                                   ; preds = %1, %_ZSt8_DestroyIN3gmx15analysismodules12_GLOBAL__N_117HbondStorageFrameEEvPT_.exit.i.i.i.i
  %.05.i.i.i.i = phi ptr [ %7, %_ZSt8_DestroyIN3gmx15analysismodules12_GLOBAL__N_117HbondStorageFrameEEvPT_.exit.i.i.i.i ], [ %2, %1 ]
  %5 = getelementptr i8, ptr %.05.i.i.i.i, i64 8
  %.0.val.i.i.i.i = load ptr, ptr %5, align 8
  %.not.i.i.i.i.i.i.i.i.i = icmp eq ptr %.0.val.i.i.i.i, null
  br i1 %.not.i.i.i.i.i.i.i.i.i, label %_ZSt8_DestroyIN3gmx15analysismodules12_GLOBAL__N_117HbondStorageFrameEEvPT_.exit.i.i.i.i, label %6

6:                                                ; preds = %.lr.ph.i.i.i.i
  tail call void @_ZdlPv(ptr noundef nonnull %.0.val.i.i.i.i) #27
  br label %_ZSt8_DestroyIN3gmx15analysismodules12_GLOBAL__N_117HbondStorageFrameEEvPT_.exit.i.i.i.i

_ZSt8_DestroyIN3gmx15analysismodules12_GLOBAL__N_117HbondStorageFrameEEvPT_.exit.i.i.i.i: ; preds = %6, %.lr.ph.i.i.i.i
  %7 = getelementptr inbounds i8, ptr %.05.i.i.i.i, i64 32
  %.not.i.i.i.i = icmp eq ptr %7, %4
  br i1 %.not.i.i.i.i, label %_ZSt8_DestroyIPN3gmx15analysismodules12_GLOBAL__N_117HbondStorageFrameES3_EvT_S5_RSaIT0_E.exitthread-pre-split.i, label %.lr.ph.i.i.i.i, !llvm.loop !5

_ZSt8_DestroyIPN3gmx15analysismodules12_GLOBAL__N_117HbondStorageFrameES3_EvT_S5_RSaIT0_E.exitthread-pre-split.i: ; preds = %_ZSt8_DestroyIN3gmx15analysismodules12_GLOBAL__N_117HbondStorageFrameEEvPT_.exit.i.i.i.i
  %.val.pr.i = load ptr, ptr %0, align 8
  br label %_ZSt8_DestroyIPN3gmx15analysismodules12_GLOBAL__N_117HbondStorageFrameES3_EvT_S5_RSaIT0_E.exit.i

_ZSt8_DestroyIPN3gmx15analysismodules12_GLOBAL__N_117HbondStorageFrameES3_EvT_S5_RSaIT0_E.exit.i: ; preds = %_ZSt8_DestroyIPN3gmx15analysismodules12_GLOBAL__N_117HbondStorageFrameES3_EvT_S5_RSaIT0_E.exitthread-pre-split.i, %1
  %.val.i = phi ptr [ %.val.pr.i, %_ZSt8_DestroyIPN3gmx15analysismodules12_GLOBAL__N_117HbondStorageFrameES3_EvT_S5_RSaIT0_E.exitthread-pre-split.i ], [ %2, %1 ]
  %.not.i.i.i = icmp eq ptr %.val.i, null
  br i1 %.not.i.i.i, label %_ZNSt6vectorIN3gmx15analysismodules12_GLOBAL__N_117HbondStorageFrameESaIS3_EED2Ev.exit, label %8

8:                                                ; preds = %_ZSt8_DestroyIPN3gmx15analysismodules12_GLOBAL__N_117HbondStorageFrameES3_EvT_S5_RSaIT0_E.exit.i
  tail call void @_ZdlPv(ptr noundef nonnull %.val.i) #27
  br label %_ZNSt6vectorIN3gmx15analysismodules12_GLOBAL__N_117HbondStorageFrameESaIS3_EED2Ev.exit

_ZNSt6vectorIN3gmx15analysismodules12_GLOBAL__N_117HbondStorageFrameESaIS3_EED2Ev.exit: ; preds = %_ZSt8_DestroyIPN3gmx15analysismodules12_GLOBAL__N_117HbondStorageFrameES3_EvT_S5_RSaIT0_E.exit.i, %8
  ret void
}